#include <math.h>
#include <stdio.h>
#include <stdlib.h>
#include <string.h>



void main()
{ char a[100][20],s;
  int n=0,i,t=0;

  do
  { scanf("%s",a[n]);
  n++;}
  while((s=getchar())!='\n');

  for(i=n-1;i>=0;i--)
  {  if(t>0) printf(" ");
      printf("%s",a[i]);
	  t++;}
	  
}