; ModuleID = '23/183.c'
source_filename = "23/183.c"
target datalayout = "e-m:e-p270:32:32-p271:32:32-p272:64:64-i64:64-f80:128-n8:16:32:64-S128"
target triple = "x86_64-pc-linux-gnu"

@.str = private unnamed_addr constant [3 x i8] c"%s\00", align 1
@.str.1 = private unnamed_addr constant [2 x i8] c" \00", align 1

; Function Attrs: noinline nounwind uwtable
define dso_local void @main() #0 {
  %1 = alloca [100 x [20 x i8]], align 16
  %2 = alloca i8, align 1
  %3 = alloca i32, align 4
  %4 = alloca i32, align 4
  %5 = alloca i32, align 4
  store i32 0, i32* %3, align 4
  store i32 0, i32* %5, align 4
  br label %6

6:                                                ; preds = %14, %0
  %7 = load i32, i32* %3, align 4
  %8 = sext i32 %7 to i64
  %9 = getelementptr inbounds [100 x [20 x i8]], [100 x [20 x i8]]* %1, i64 0, i64 %8
  %10 = getelementptr inbounds [20 x i8], [20 x i8]* %9, i64 0, i64 0
  %11 = call i32 (i8*, ...) @__isoc99_scanf(i8* getelementptr inbounds ([3 x i8], [3 x i8]* @.str, i64 0, i64 0), i8* %10)
  %12 = load i32, i32* %3, align 4
  %13 = add nsw i32 %12, 1
  store i32 %13, i32* %3, align 4
  br label %14

14:                                               ; preds = %6
  %15 = call i32 @getchar()
  %16 = trunc i32 %15 to i8
  store i8 %16, i8* %2, align 1
  %17 = sext i8 %16 to i32
  %18 = icmp ne i32 %17, 10
  br i1 %18, label %6, label %19

19:                                               ; preds = %14
  %20 = load i32, i32* %3, align 4
  %21 = sub nsw i32 %20, 1
  store i32 %21, i32* %4, align 4
  br label %22

22:                                               ; preds = %38, %19
  %23 = load i32, i32* %4, align 4
  %24 = icmp sge i32 %23, 0
  br i1 %24, label %25, label %41

25:                                               ; preds = %22
  %26 = load i32, i32* %5, align 4
  %27 = icmp sgt i32 %26, 0
  br i1 %27, label %28, label %30

28:                                               ; preds = %25
  %29 = call i32 (i8*, ...) @printf(i8* getelementptr inbounds ([2 x i8], [2 x i8]* @.str.1, i64 0, i64 0))
  br label %30

30:                                               ; preds = %28, %25
  %31 = load i32, i32* %4, align 4
  %32 = sext i32 %31 to i64
  %33 = getelementptr inbounds [100 x [20 x i8]], [100 x [20 x i8]]* %1, i64 0, i64 %32
  %34 = getelementptr inbounds [20 x i8], [20 x i8]* %33, i64 0, i64 0
  %35 = call i32 (i8*, ...) @printf(i8* getelementptr inbounds ([3 x i8], [3 x i8]* @.str, i64 0, i64 0), i8* %34)
  %36 = load i32, i32* %5, align 4
  %37 = add nsw i32 %36, 1
  store i32 %37, i32* %5, align 4
  br label %38

38:                                               ; preds = %30
  %39 = load i32, i32* %4, align 4
  %40 = add nsw i32 %39, -1
  store i32 %40, i32* %4, align 4
  br label %22

41:                                               ; preds = %22
  ret void
}

declare dso_local i32 @__isoc99_scanf(i8*, ...) #1

declare dso_local i32 @getchar() #1

declare dso_local i32 @printf(i8*, ...) #1


!llvm.module.flags = !{!0}
!llvm.ident = !{!1}

!0 = !{i32 1, !"wchar_size", i32 4}
!1 = !{!"clang version 10.0.0-4ubuntu1 "}
